Certificate:
    Data:
        Version: 3 (0x2)
        Serial Number: 1 (0x1)
        Signature Algorithm: sha1WithRSAEncryption
        Issuer: C=BA, ST=RS, L=Banja Luka, O=Elektrotehnicki fakultet, OU=ETF, CN=ca_tijelo/emailAddress=ca@mail.com
        Validity
            Not Before: Jun  4 11:30:26 2024 GMT
            Not After : Jun  4 11:30:26 2025 GMT
        Subject: C=BA, ST=RS, O=Elektrotehnicki fakultet, OU=ETF, CN=Marko Markovic/emailAddress=marko@mail.com
        Subject Public Key Info:
            Public Key Algorithm: rsaEncryption
                RSA Public-Key: (2048 bit)
                Modulus:
                    00:a8:36:a7:2f:6a:26:e1:1d:3c:f0:f8:76:cc:18:
                    86:2c:9f:2c:55:de:a6:f9:2e:ef:ae:00:55:43:b9:
                    58:42:d8:9a:be:fc:98:37:a3:02:9f:2b:08:f1:f8:
                    3a:c6:8f:2b:a0:df:44:01:da:f6:d3:cd:f6:3e:cf:
                    ca:b5:f8:18:66:e1:9f:32:0f:2b:b5:73:83:64:c8:
                    05:bd:8a:94:38:01:7c:f3:58:dd:6a:64:9e:d6:2c:
                    45:6d:e8:6c:a7:19:69:d7:99:e9:14:46:03:f2:43:
                    f4:7a:d3:0e:fa:0f:49:d0:97:0e:3e:44:bb:f1:98:
                    58:e7:e7:34:b2:3c:ee:df:50:39:58:a0:3e:53:11:
                    95:be:e2:be:c8:d9:ff:be:34:49:03:1e:24:a8:2a:
                    ca:89:ff:2a:38:67:ea:70:6a:f7:5c:b5:55:ce:6e:
                    47:e4:22:61:3c:8c:e8:9c:e3:b3:31:86:6e:1c:f6:
                    9c:56:9b:2e:86:32:0e:cf:70:66:85:69:2a:ef:78:
                    ea:8e:bf:f3:d5:2b:df:53:5b:18:0b:74:ac:15:57:
                    0e:b1:c9:7b:1f:be:1f:8b:87:1b:b7:76:9f:59:d7:
                    fc:70:c9:51:48:ca:ff:9f:10:28:2f:d0:9e:76:58:
                    38:e0:5d:1b:57:29:04:6b:ff:06:de:ac:2f:63:c3:
                    30:87
                Exponent: 65537 (0x10001)
        X509v3 extensions:
            X509v3 Basic Constraints: 
                CA:FALSE
            X509v3 Key Usage: 
                Digital Signature
            X509v3 Extended Key Usage: 
                TLS Web Client Authentication, TLS Web Server Authentication
            Netscape Comment: 
                OpenSSL Generated Certificate
            X509v3 Subject Key Identifier: 
                22:0B:E1:D1:DA:72:3A:EE:44:BC:0E:AE:EE:94:AA:B4:FA:E8:20:92
            X509v3 Authority Key Identifier: 
                keyid:7D:32:8D:94:D5:61:C6:BC:03:20:63:7A:84:CC:AE:29:CA:96:38:A3

            X509v3 CRL Distribution Points: 

                Full Name:
                  URI:http://192.168.21.89/rootcrl.pem

    Signature Algorithm: sha1WithRSAEncryption
         0e:fe:b8:09:d3:bf:0e:cb:4c:48:84:13:4f:28:e5:62:e0:3f:
         62:8a:b4:60:5e:8f:e5:80:90:e0:cf:87:56:a6:8e:8c:9a:52:
         b5:c9:3a:da:5a:4c:17:5b:17:f9:11:d2:0d:7c:b2:43:35:24:
         b8:9d:af:be:91:ec:c4:46:1d:b8:41:f7:50:ea:c1:c0:f6:b2:
         18:bc:aa:c8:f2:36:bc:11:c7:6d:b1:fc:92:32:8c:e4:e6:9f:
         8a:3b:cc:cc:7f:48:45:38:f0:c1:ed:8c:df:4e:c9:43:dd:e1:
         24:38:5a:55:97:3f:61:01:d9:15:18:04:39:1b:3d:08:c6:55:
         1c:6d:ba:ba:ff:cd:d5:ed:42:7d:09:77:e6:38:ff:e6:a8:37:
         c5:b9:1d:93:51:fa:4c:7e:ae:c3:3f:93:61:2b:f5:8c:8e:97:
         9d:5d:97:5c:c9:bb:fc:69:44:e0:23:61:16:76:37:35:a7:6e:
         5a:11:fa:84:4a:7e:e0:a3:ce:a4:fd:c4:61:45:12:37:33:f7:
         88:6f:49:99:4d:8a:72:1d:c1:b6:32:47:04:9a:58:61:14:2f:
         2d:cc:12:a2:0a:14:27:0a:1f:fa:37:23:67:ee:e3:fc:f1:8c:
         32:74:cf:33:c6:74:36:df:f3:93:14:4b:51:65:b6:dd:63:e7:
         c0:7c:2a:f9:f5:84:c9:ca:ce:af:e7:db:99:b6:ad:74:7f:e0:
         1d:1f:1e:41:f8:ba:18:8b:f8:1e:b4:c8:09:6c:90:04:3c:de:
         97:5b:6d:09:8f:6f:6c:ee:eb:f0:85:81:97:7b:99:40:e9:02:
         01:e7:61:51:f4:81:bf:95:fd:a8:17:d3:81:b4:47:2e:be:28:
         f5:58:84:cc:77:9a:06:2e:93:31:ef:a5:26:c6:0b:0f:f3:6b:
         30:ed:a8:96:8e:51:65:9a:aa:24:6c:68:67:10:92:2a:81:8d:
         d4:e5:78:fb:ca:09:d3:8a:31:6e:1f:79:d6:24:35:a5:5d:ea:
         2d:46:a0:43:29:9d:03:f7:f9:74:e0:f4:9c:d5:bb:c7:80:49:
         92:6c:26:d3:39:c7:af:27:2a:24:0b:0d:ba:55:61:43:6d:54:
         5a:03:ef:84:5f:d5:91:c6:32:72:a6:45:f2:84:1c:40:20:62:
         ba:c1:82:17:f0:23:04:a3:51:84:9e:71:20:9a:3b:10:ac:48:
         84:32:51:a6:30:4c:d3:15:09:af:de:c7:04:4f:41:95:ad:1a:
         9c:80:15:85:12:87:a2:10:ae:e9:d3:fb:0d:31:54:45:7b:14:
         a1:c5:ee:a6:6a:83:6d:66:56:de:aa:e2:c2:94:5c:1b:de:ee:
         0b:10:f5:57:4e:db:5d:bd
-----BEGIN CERTIFICATE-----
MIIFbDCCA1SgAwIBAgIBATANBgkqhkiG9w0BAQUFADCBkDELMAkGA1UEBhMCQkEx
CzAJBgNVBAgTAlJTMRMwEQYDVQQHEwpCYW5qYSBMdWthMSEwHwYDVQQKExhFbGVr
dHJvdGVobmlja2kgZmFrdWx0ZXQxDDAKBgNVBAsTA0VURjESMBAGA1UEAxQJY2Ff
dGlqZWxvMRowGAYJKoZIhvcNAQkBFgtjYUBtYWlsLmNvbTAeFw0yNDA2MDQxMTMw
MjZaFw0yNTA2MDQxMTMwMjZaMIGDMQswCQYDVQQGEwJCQTELMAkGA1UECBMCUlMx
ITAfBgNVBAoTGEVsZWt0cm90ZWhuaWNraSBmYWt1bHRldDEMMAoGA1UECxMDRVRG
MRcwFQYDVQQDEw5NYXJrbyBNYXJrb3ZpYzEdMBsGCSqGSIb3DQEJARYObWFya29A
bWFpbC5jb20wggEiMA0GCSqGSIb3DQEBAQUAA4IBDwAwggEKAoIBAQCoNqcvaibh
HTzw+HbMGIYsnyxV3qb5Lu+uAFVDuVhC2Jq+/Jg3owKfKwjx+DrGjyug30QB2vbT
zfY+z8q1+Bhm4Z8yDyu1c4NkyAW9ipQ4AXzzWN1qZJ7WLEVt6GynGWnXmekURgPy
Q/R60w76D0nQlw4+RLvxmFjn5zSyPO7fUDlYoD5TEZW+4r7I2f++NEkDHiSoKsqJ
/yo4Z+pwavdctVXObkfkImE8jOic47Mxhm4c9pxWmy6GMg7PcGaFaSrveOqOv/PV
K99TWxgLdKwVVw6xyXsfvh+Lhxu3dp9Z1/xwyVFIyv+fECgv0J52WDjgXRtXKQRr
/wberC9jwzCHAgMBAAGjgdswgdgwCQYDVR0TBAIwADALBgNVHQ8EBAMCB4AwHQYD
VR0lBBYwFAYIKwYBBQUHAwIGCCsGAQUFBwMBMCwGCWCGSAGG+EIBDQQfFh1PcGVu
U1NMIEdlbmVyYXRlZCBDZXJ0aWZpY2F0ZTAdBgNVHQ4EFgQUIgvh0dpyOu5EvA6u
7pSqtProIJIwHwYDVR0jBBgwFoAUfTKNlNVhxrwDIGN6hMyuKcqWOKMwMQYDVR0f
BCowKDAmoCSgIoYgaHR0cDovLzE5Mi4xNjguMjEuODkvcm9vdGNybC5wZW0wDQYJ
KoZIhvcNAQEFBQADggIBAA7+uAnTvw7LTEiEE08o5WLgP2KKtGBej+WAkODPh1am
joyaUrXJOtpaTBdbF/kR0g18skM1JLidr76R7MRGHbhB91DqwcD2shi8qsjyNrwR
x22x/JIyjOTmn4o7zMx/SEU48MHtjN9OyUPd4SQ4WlWXP2EB2RUYBDkbPQjGVRxt
urr/zdXtQn0Jd+Y4/+aoN8W5HZNR+kx+rsM/k2Er9YyOl51dl1zJu/xpROAjYRZ2
NzWnbloR+oRKfuCjzqT9xGFFEjcz94hvSZlNinIdwbYyRwSaWGEULy3MEqIKFCcK
H/o3I2fu4/zxjDJ0zzPGdDbf85MUS1Fltt1j58B8Kvn1hMnKzq/n25m2rXR/4B0f
HkH4uhiL+B60yAlskAQ83pdbbQmPb2zu6/CFgZd7mUDpAgHnYVH0gb+V/agX04G0
Ry6+KPVYhMx3mgYukzHvpSbGCw/zazDtqJaOUWWaqiRsaGcQkiqBjdTlePvKCdOK
MW4fedYkNaVd6i1GoEMpnQP3+XTg9JzVu8eASZJsJtM5x68nKiQLDbpVYUNtVFoD
74Rf1ZHGMnKmRfKEHEAgYrrBghfwIwSjUYSecSCaOxCsSIQyUaYwTNMVCa/exwRP
QZWtGpyAFYUSh6IQrunT+w0xVEV7FKHF7qZqg21mVt6q4sKUXBve7gsQ9VdO2129
-----END CERTIFICATE-----
